Certificate:
    Data:
        Version: 3 (0x2)
        Serial Number: 6 (0x6)
        Signature Algorithm: sha256WithRSAEncryption
        Issuer: CN=OPTUM QUANTUM CA
        Validity
            Not Before: Aug 31 15:12:31 2021 GMT
            Not After : Aug 31 15:12:31 2022 GMT
        Subject: C=US, ST=VA, O=MyCompany, OU=MyDivision, CN=localhost
        Subject Public Key Info:
            Public Key Algorithm: dilithium2
                dilithium2 Public-Key:
                pub:
                    ac:16:91:da:2b:60:f0:d3:09:8a:f7:a9:8b:45:b6:
                    11:72:9d:61:2c:71:fa:41:91:98:b3:74:1f:ce:2d:
                    51:59:64:ae:2d:f3:ac:d1:74:c4:34:04:f3:62:ee:
                    7e:45:1b:14:ac:82:82:e1:7f:45:dc:69:96:a2:36:
                    53:7a:1c:16:9b:d6:ae:30:61:bb:91:96:90:54:1d:
                    8c:e2:9a:ce:58:1e:3d:9e:49:35:32:4f:c3:89:53:
                    5d:e9:8c:59:eb:3b:8d:e8:9f:0f:0a:70:57:59:53:
                    a1:2c:95:d8:32:9f:4a:a1:27:6c:37:ea:2e:85:a6:
                    be:0d:26:f5:67:38:ca:54:cc:17:ad:4d:30:9e:98:
                    07:2b:4b:af:02:b4:e4:db:d1:81:74:4b:3a:ae:d6:
                    63:fb:08:70:8a:42:d5:46:35:a3:e3:8b:87:7a:4a:
                    27:06:5a:4c:56:f1:d1:8a:4b:88:14:40:98:92:36:
                    7c:30:70:26:0b:b3:22:0b:10:cc:8f:22:73:e1:15:
                    d8:bf:1c:43:23:5f:ef:cc:d2:51:70:12:f8:25:6e:
                    25:0d:ae:63:7b:40:d9:37:70:4c:71:83:d4:b3:ac:
                    a7:d6:10:6c:4b:07:7f:fe:f3:71:02:08:45:69:a3:
                    29:9a:16:ad:a7:60:90:43:dd:bc:2a:e2:e6:a8:a4:
                    66:13:04:30:9e:2e:98:20:63:57:2e:72:cd:c2:cf:
                    2a:2a:51:63:6a:6b:c2:8f:55:5e:82:a9:6b:ad:e0:
                    72:d9:16:a4:25:98:fc:4f:88:cf:1d:d1:9b:ae:cb:
                    de:c4:70:e7:a8:16:49:72:14:88:12:ce:45:e3:64:
                    c6:7f:38:4f:04:36:71:3c:31:02:c1:6e:fb:e6:6e:
                    e9:82:b4:06:7a:2c:a4:9f:3b:1c:db:8e:2e:5f:00:
                    82:92:bd:71:95:b8:19:11:02:d5:9a:10:d3:a0:1c:
                    4f:75:13:c5:af:d0:1b:2e:d3:e0:52:1f:aa:91:5c:
                    db:e1:48:98:5c:c6:13:76:99:53:b2:97:a7:f1:f8:
                    43:64:2c:3f:ac:e1:d0:29:bd:f1:f6:df:0f:bf:ef:
                    9d:bc:d8:06:1d:6b:77:57:fd:70:49:69:71:4f:55:
                    58:af:87:9f:0c:5c:da:8d:f2:2d:10:58:49:22:6d:
                    40:ae:7b:fc:49:f4:45:74:c0:38:d0:0a:21:c0:e8:
                    1b:aa:19:54:36:55:50:ad:1c:e3:f9:3f:17:4f:24:
                    42:f7:b6:ea:19:9a:87:42:30:16:44:28:bd:24:4b:
                    16:4a:9c:b3:5d:cf:6c:ec:ae:0a:d7:92:9f:e0:6a:
                    73:46:eb:8a:29:f8:59:ba:ae:fb:99:1c:d9:93:65:
                    51:6c:5d:d2:34:f3:49:f1:df:25:5b:24:18:a0:27:
                    81:69:c4:af:fa:da:46:05:91:17:37:ef:80:44:c5:
                    26:01:f0:5d:1d:f8:b4:d2:bb:bb:64:66:f6:8d:f7:
                    52:a7:03:08:0f:9c:6d:9f:99:f2:15:82:ec:78:cd:
                    b4:b6:f7:a1:2c:16:f4:32:5e:05:81:51:75:15:7e:
                    b4:19:02:02:be:15:cd:a6:84:32:aa:8a:1e:8c:34:
                    06:d9:ab:aa:d2:6a:9c:28:c6:91:70:21:f5:ee:86:
                    c0:a3:90:08:8b:56:02:89:ea:17:ae:fb:b9:29:92:
                    03:03:ea:32:2b:f9:43:0b:d8:4d:a5:b4:b5:70:15:
                    95:7e:ac:0a:a7:55:78:b6:ec:50:44:5e:51:81:0a:
                    44:14:fc:07:b0:f7:ac:16:c6:f9:76:62:a0:0f:6a:
                    a6:14:f4:6a:db:4b:aa:02:ab:ff:cb:a7:3b:a7:92:
                    84:fa:d5:f9:f2:80:8b:b2:4b:0b:0f:87:ea:46:b1:
                    0f:d3:3a:55:09:a4:8a:fd:1f:11:13:ed:3a:df:6b:
                    7e:7b:52:0f:15:a9:7d:b9:4e:22:4c:81:74:03:4d:
                    44:ab:30:1b:71:e6:86:81:84:3e:d6:3d:71:10:c2:
                    2b:f2:ec:79:fc:28:79:e6:82:af:0b:7a:52:8d:a4:
                    46:f6:91:d9:f6:14:99:80:7b:0c:24:54:75:b2:6b:
                    6b:65:ae:86:9c:d4:07:20:9a:b3:0a:99:9b:96:f4:
                    3b:95:2a:e3:92:a8:ea:a4:ce:52:c5:41:3e:e7:da:
                    30:7c:76:00:fd:47:0a:59:e7:95:24:70:38:81:26:
                    83:73:06:9c:01:3d:de:e5:45:5b:1e:b6:cb:da:75:
                    67:09:49:96:0d:a7:75:2d:27:4e:85:cd:54:2f:9d:
                    7f:05:09:65:63:f9:2d:bc:54:bc:fc:ba:00:bb:4b:
                    5a:1c:03:55:4b:cd:56:bd:30:6b:65:63:9c:d2:4c:
                    3d:1c:de:c9:84:2d:16:2a:37:fe:64:26:34:1f:42:
                    cd:ad:b7:97:69:17:da:35:1c:30:eb:2d:89:ba:17:
                    e6:af:aa:bf:53:80:05:bd:8b:20:93:b0:e7:41:68:
                    47:b8:94:10:47:a1:c2:d9:ea:5a:48:1b:d2:4f:81:
                    82:01:b5:d3:b1:1c:e5:9c:f7:42:6b:97:22:88:86:
                    e4:32:ef:f8:ad:be:6b:b9:e6:01:4b:e2:2d:89:01:
                    5e:e6:c4:b9:af:42:11:96:99:a5:ae:13:a8:b3:e4:
                    c0:c6:ca:9f:d8:52:9d:42:be:94:a7:26:4f:22:5f:
                    30:63:a6:b1:f9:62:bc:04:b3:02:61:4e:26:1c:26:
                    f4:ef:be:37:ff:07:e4:31:92:2e:41:2b:f9:ae:80:
                    02:c4:59:f1:6c:58:32:84:80:9e:59:9a:f2:bc:ae:
                    65:73:c2:36:fa:9d:66:e4:1f:8f:60:de:66:f7:99:
                    f4:7a:31:70:6e:0a:22:21:48:cc:b5:63:4d:a7:52:
                    f0:68:ae:92:71:36:fd:35:85:9b:66:48:82:0b:be:
                    e2:fc:60:a7:78:de:3f:e7:6b:27:2a:b1:46:ac:ed:
                    37:ef:18:e9:d0:ad:d3:1c:54:ff:7b:75:4d:7f:12:
                    cd:5a:4a:6e:58:53:68:ad:f9:e5:a5:ff:d6:27:0a:
                    cb:21:b0:48:e9:4d:ea:e0:0a:ac:40:ed:d2:4a:6e:
                    84:fc:42:c3:ac:bf:4f:d7:94:ae:d4:c2:0c:19:e7:
                    a7:e6:d9:d1:89:69:65:1c:3b:f4:b6:ba:bc:25:29:
                    53:15:0f:87:76:a5:b7:9d:77:89:56:4e:ae:b6:61:
                    1d:0e:93:0c:69:91:55:95:7a:e3:70:dc:1d:df:fb:
                    cc:8d:0a:1e:55:82:8d:cb:01:32:dc:fd:69:10:04:
                    37:2d:71:2a:c4:a2:48:00:b3:14:ae:0c:d8:1e:eb:
                    3c:65:70:ae:30:29:6a:ba:63:1a:a6:53:27:ca:4d:
                    ec:f2:20:c0:95:66:71:5f:e2:58:83:67:02:05:93:
                    9a:bd:2e:5a:56:e4:0c:86:f1:3f:e2:a5:80:26:89:
                    08:64:c2:1d:c6:a4:be:ec:ba:4b:f3:38:a3:08:e8:
                    84:2c:cf:cb:87:0d:89
        X509v3 extensions:
            X509v3 Basic Constraints: 
                CA:FALSE
            X509v3 Extended Key Usage: 
                TLS Web Server Authentication, TLS Web Client Authentication
            X509v3 Subject Alternative Name: 
                DNS:localhost, DNS:oqs-httpd, DNS:oqs-httpd:4433, DNS:oqs-httpd:4433:0, IP Address:192.168.173.193, IP Address:172.18.26.49, IP Address:192.168.56.1
            X509v3 Subject Key Identifier: 
                02:68:D3:5B:A9:E9:21:68:43:62:1A:0B:68:BB:2D:2F:4D:61:F5:31
    Signature Algorithm: sha256WithRSAEncryption
         c3:09:e4:51:cd:6a:7d:0f:1b:85:7e:45:98:1b:cf:5c:94:e1:
         20:eb:3f:7b:34:c8:19:bd:23:9c:9f:a6:88:c6:f1:93:ad:3c:
         eb:c3:be:26:3c:4f:70:d1:3a:e6:7c:67:91:03:d2:94:ef:f4:
         f5:e1:25:94:bc:6a:0e:ad:2c:2f:5e:18:ec:be:03:dc:58:f9:
         eb:ca:63:45:1d:81:48:fd:66:be:85:69:08:f1:1a:a4:a7:4a:
         2b:f7:f1:fa:a4:d7:fa:63:bc:66:20:04:81:e0:7f:a0:74:c0:
         fb:e4:b8:84:d7:4f:f7:a4:58:a1:ad:e0:32:77:76:da:09:49:
         0e:41:06:58:64:bb:7c:69:1d:8c:11:29:84:6b:40:79:d1:30:
         13:ce:66:67:68:ee:c2:75:db:61:74:f1:21:39:ca:75:65:e0:
         25:7b:92:5a:a8:63:ea:86:bd:1d:25:a8:c6:11:7b:16:66:c2:
         8d:fd:67:7c:9f:25:c5:0f:87:70:3f:b0:2a:4e:6e:e3:23:32:
         3b:36:2c:14:84:9c:10:47:24:0e:fc:95:f2:95:c8:14:f7:40:
         cb:08:21:be:e0:7f:8b:03:24:db:d0:de:ac:ca:49:82:5a:c4:
         a2:c7:e9:1c:fa:8b:e0:fd:68:ee:a7:de:8b:b9:d2:96:ad:aa:
         53:31:b8:11
-----BEGIN CERTIFICATE-----
MIIHoTCCBomgAwIBAgIBBjANBgkqhkiG9w0BAQsFADAbMRkwFwYDVQQDDBBPUFRV
TSBRVUFOVFVNIENBMB4XDTIxMDgzMTE1MTIzMVoXDTIyMDgzMTE1MTIzMVowVzEL
MAkGA1UEBhMCVVMxCzAJBgNVBAgMAlZBMRIwEAYDVQQKDAlNeUNvbXBhbnkxEzAR
BgNVBAsMCk15RGl2aXNpb24xEjAQBgNVBAMMCWxvY2FsaG9zdDCCBTQwDQYLKwYB
BAECggsHBAQDggUhAKwWkdorYPDTCYr3qYtFthFynWEscfpBkZizdB/OLVFZZK4t
86zRdMQ0BPNi7n5FGxSsgoLhf0XcaZaiNlN6HBab1q4wYbuRlpBUHYzims5YHj2e
STUyT8OJU13pjFnrO43onw8KcFdZU6Esldgyn0qhJ2w36i6Fpr4NJvVnOMpUzBet
TTCemAcrS68CtOTb0YF0Szqu1mP7CHCKQtVGNaPji4d6SicGWkxW8dGKS4gUQJiS
NnwwcCYLsyILEMyPInPhFdi/HEMjX+/M0lFwEvglbiUNrmN7QNk3cExxg9SzrKfW
EGxLB3/+83ECCEVpoymaFq2nYJBD3bwq4uaopGYTBDCeLpggY1cucs3CzyoqUWNq
a8KPVV6CqWut4HLZFqQlmPxPiM8d0Zuuy97EcOeoFklyFIgSzkXjZMZ/OE8ENnE8
MQLBbvvmbumCtAZ6LKSfOxzbji5fAIKSvXGVuBkRAtWaENOgHE91E8Wv0Bsu0+BS
H6qRXNvhSJhcxhN2mVOyl6fx+ENkLD+s4dApvfH23w+/75282AYda3dX/XBJaXFP
VVivh58MXNqN8i0QWEkibUCue/xJ9EV0wDjQCiHA6BuqGVQ2VVCtHOP5PxdPJEL3
tuoZmodCMBZEKL0kSxZKnLNdz2zsrgrXkp/ganNG64op+Fm6rvuZHNmTZVFsXdI0
80nx3yVbJBigJ4FpxK/62kYFkRc374BExSYB8F0d+LTSu7tkZvaN91KnAwgPnG2f
mfIVgux4zbS296EsFvQyXgWBUXUVfrQZAgK+Fc2mhDKqih6MNAbZq6rSapwoxpFw
IfXuhsCjkAiLVgKJ6heu+7kpkgMD6jIr+UML2E2ltLVwFZV+rAqnVXi27FBEXlGB
CkQU/Aew96wWxvl2YqAPaqYU9GrbS6oCq//LpzunkoT61fnygIuySwsPh+pGsQ/T
OlUJpIr9HxET7Trfa357Ug8VqX25TiJMgXQDTUSrMBtx5oaBhD7WPXEQwivy7Hn8
KHnmgq8LelKNpEb2kdn2FJmAewwkVHWya2tlroac1AcgmrMKmZuW9DuVKuOSqOqk
zlLFQT7n2jB8dgD9RwpZ55UkcDiBJoNzBpwBPd7lRVsetsvadWcJSZYNp3UtJ06F
zVQvnX8FCWVj+S28VLz8ugC7S1ocA1VLzVa9MGtlY5zSTD0c3smELRYqN/5kJjQf
Qs2tt5dpF9o1HDDrLYm6F+avqr9TgAW9iyCTsOdBaEe4lBBHocLZ6lpIG9JPgYIB
tdOxHOWc90JrlyKIhuQy7/itvmu55gFL4i2JAV7mxLmvQhGWmaWuE6iz5MDGyp/Y
Up1CvpSnJk8iXzBjprH5YrwEswJhTiYcJvTvvjf/B+Qxki5BK/mugALEWfFsWDKE
gJ5ZmvK8rmVzwjb6nWbkH49g3mb3mfR6MXBuCiIhSMy1Y02nUvBorpJxNv01hZtm
SIILvuL8YKd43j/naycqsUas7TfvGOnQrdMcVP97dU1/Es1aSm5YU2it+eWl/9Yn
CsshsEjpTergCqxA7dJKboT8QsOsv0/XlK7UwgwZ56fm2dGJaWUcO/S2urwlKVMV
D4d2pbedd4lWTq62YR0OkwxpkVWVeuNw3B3f+8yNCh5Vgo3LATLc/WkQBDctcSrE
okgAsxSuDNge6zxlcK4wKWq6YxqmUyfKTezyIMCVZnFf4liDZwIFk5q9LlpW5AyG
8T/ipYAmiQhkwh3GpL7sukvzOKMI6IQsz8uHDYmjgaEwgZ4wCQYDVR0TBAIwADAd
BgNVHSUEFjAUBggrBgEFBQcDAQYIKwYBBQUHAwIwUwYDVR0RBEwwSoIJbG9jYWxo
b3N0gglvcXMtaHR0cGSCDm9xcy1odHRwZDo0NDMzghBvcXMtaHR0cGQ6NDQzMzow
hwTAqK3BhwSsEhoxhwTAqDgBMB0GA1UdDgQWBBQCaNNbqekhaENiGgtouy0vTWH1
MTANBgkqhkiG9w0BAQsFAAOCAQEAwwnkUc1qfQ8bhX5FmBvPXJThIOs/ezTIGb0j
nJ+miMbxk60868O+JjxPcNE65nxnkQPSlO/09eEllLxqDq0sL14Y7L4D3Fj568pj
RR2BSP1mvoVpCPEapKdKK/fx+qTX+mO8ZiAEgeB/oHTA++S4hNdP96RYoa3gMnd2
2glJDkEGWGS7fGkdjBEphGtAedEwE85mZ2juwnXbYXTxITnKdWXgJXuSWqhj6oa9
HSWoxhF7FmbCjf1nfJ8lxQ+HcD+wKk5u4yMyOzYsFIScEEckDvyV8pXIFPdAywgh
vuB/iwMk29DerMpJglrEosfpHPqL4P1o7qfei7nSlq2qUzG4EQ==
-----END CERTIFICATE-----
