Certificate:
    Data:
        Version: 3 (0x2)
        Serial Number: 1 (0x1)
        Signature Algorithm: sha256WithRSAEncryption
        Issuer: CN=OPTUM QUANTUM CA
        Validity
            Not Before: Sep  2 10:53:08 2021 GMT
            Not After : Sep  2 10:53:08 2022 GMT
        Subject: C=US, ST=MN, O=Test Optum Technologies, OU=Quantum Experimentation, CN=localhost
        Subject Public Key Info:
            Public Key Algorithm: dilithium2
                dilithium2 Public-Key:
                pub:
                    e4:bc:91:96:6f:f9:f1:a1:f4:90:6b:a6:50:28:d3:
                    60:08:d1:b4:0b:eb:93:29:0e:cf:19:38:7d:23:59:
                    68:d5:9c:67:92:c7:f8:2f:aa:9f:66:ca:2a:dd:5f:
                    1b:b7:69:4a:ed:98:88:3b:dd:1b:0b:8f:ab:cd:19:
                    12:58:43:39:23:a3:47:e1:ff:91:ba:f9:cb:c8:63:
                    3c:67:6e:25:38:85:07:46:fd:29:54:f5:81:82:d4:
                    0b:1f:46:26:3e:ae:fc:37:9d:7e:30:8f:dd:6e:50:
                    17:7b:a3:e1:ca:82:07:88:5a:81:76:2f:ce:83:96:
                    3f:68:0e:a2:49:7c:f8:b6:76:6f:9e:ac:42:ab:2a:
                    d8:f4:20:dd:19:86:28:30:63:da:2d:41:7d:cb:7e:
                    47:e2:b9:12:bd:99:db:3a:f0:56:a7:d8:b6:a1:2b:
                    8a:22:a9:fd:ec:fd:12:7c:56:42:80:fa:2e:6d:7e:
                    46:e3:4e:5d:7d:af:0c:94:c6:32:70:be:05:de:ae:
                    01:de:e4:1c:5e:7f:d0:3b:bc:5c:29:8a:89:af:db:
                    42:bc:3c:5e:8d:73:00:e8:92:ef:29:72:d0:cc:d3:
                    c5:50:97:0f:02:ab:5c:32:cd:fb:38:66:c9:0e:2a:
                    4d:92:2b:51:bc:14:66:32:98:77:34:e7:cb:2b:c2:
                    2d:7f:a8:f8:f1:2a:7a:f9:77:ef:17:cd:46:94:0d:
                    97:d2:0a:0e:38:b4:0f:4c:4a:27:56:3d:ae:64:3e:
                    69:7a:87:c5:41:82:9d:39:f1:d4:d7:5d:e0:b5:15:
                    10:59:7f:9b:09:19:33:2c:61:76:9d:8e:8f:3e:a9:
                    12:ed:46:6e:7a:d0:ff:3e:b0:c3:c2:f6:cb:ae:a9:
                    19:cd:87:ff:61:5c:8c:f7:d8:75:b7:29:a5:00:4c:
                    fa:e5:84:b4:b6:6e:fd:e0:5f:8c:3c:e4:84:ca:92:
                    37:61:55:39:00:63:92:43:6e:b0:fc:89:51:31:c8:
                    20:b1:0f:75:ff:cb:64:2e:5b:d8:1a:4a:e2:93:01:
                    95:a2:97:9d:30:03:64:0e:a2:8f:62:0b:c5:3a:50:
                    90:5b:04:2b:ff:94:2f:80:66:81:d6:00:15:4c:81:
                    69:4d:86:2b:b5:d9:d1:36:75:a5:37:5d:cf:7e:f3:
                    4a:b7:82:3a:72:92:33:a5:5c:ed:19:d5:e6:05:db:
                    c6:11:97:12:34:c6:d8:ca:ab:7e:1a:3e:8c:5f:f0:
                    b3:e7:fb:18:5e:7a:5e:8d:92:a2:26:a6:3a:4b:81:
                    11:dd:52:36:25:10:1b:9d:b8:5c:27:ec:2a:56:be:
                    e1:73:4b:0f:81:27:2a:a8:43:d8:5e:d8:5b:4f:2a:
                    a3:b6:fa:d7:e6:d3:16:09:4c:b2:1d:16:c1:a1:71:
                    da:be:1b:0d:e9:1d:5c:c6:b3:c7:61:9a:9d:fa:f3:
                    c9:d3:40:1b:ff:e3:d7:9f:7a:f2:b3:d1:f7:2f:3a:
                    48:bc:14:c9:58:ef:2b:1a:6b:67:4f:3c:88:76:44:
                    71:d4:02:7b:0f:4a:8b:13:aa:37:85:31:2c:e9:20:
                    03:8a:1d:51:2b:20:31:e6:cb:cb:ac:b4:51:02:fb:
                    2e:73:e1:8a:7e:f4:5e:39:7d:12:2b:51:b0:4f:01:
                    ac:e9:96:ed:d3:3e:a9:18:92:20:11:4c:ad:86:7f:
                    2d:79:21:3b:dc:6d:4f:a3:03:fc:04:1a:a6:9d:38:
                    34:9b:89:e3:93:6b:25:3e:5c:79:a3:16:b6:3d:1c:
                    8b:f5:36:6e:99:c9:53:96:95:55:69:27:44:d4:06:
                    5c:67:74:2b:e4:92:0b:3e:9e:76:d1:a8:c8:75:ab:
                    aa:eb:70:09:d3:4e:8b:22:d5:91:67:7c:13:4b:a3:
                    90:20:16:73:5e:56:0d:9b:93:39:39:9d:80:b4:f7:
                    12:0a:4d:f6:bc:ac:d7:1a:a3:2b:0c:41:1d:b2:d2:
                    f5:24:f9:50:15:1e:a6:59:20:05:d0:55:38:97:61:
                    e6:69:51:01:09:e0:69:6f:5e:69:47:b3:2b:19:f5:
                    fe:0d:9c:a8:5e:1d:c5:dd:1a:ba:e0:5d:21:4e:da:
                    98:de:3d:d2:ff:b6:6a:c8:9b:2c:09:68:c4:cb:06:
                    61:93:71:a2:64:cb:c9:d4:97:1b:1d:63:5b:a8:31:
                    11:02:8c:a0:0b:b6:d7:96:f1:c3:54:b1:0b:a8:e8:
                    b2:af:44:f5:27:8e:36:3f:c4:09:2f:8e:68:70:e5:
                    81:e8:e7:4d:77:35:74:ee:a5:63:f5:e5:0a:2b:d7:
                    72:38:97:8f:cd:0d:de:93:2e:44:29:26:e4:80:04:
                    3d:85:69:15:82:cd:c8:b6:66:48:07:1a:83:e7:0c:
                    09:24:7e:3f:38:b9:46:51:2a:7b:1f:67:12:1e:16:
                    d3:eb:13:1f:d9:73:15:70:59:e3:96:56:d1:6c:95:
                    8c:ab:9f:73:42:79:80:b3:a9:5a:1a:bd:e6:d6:8d:
                    ca:ce:0f:95:ba:e9:2a:ed:83:91:96:7b:8b:5e:70:
                    fd:2b:01:5e:6f:c8:67:65:99:c6:22:0d:5c:ac:e2:
                    ff:c3:31:de:6f:51:94:b5:b5:69:aa:50:ff:9b:09:
                    c0:5d:9b:4f:4b:de:a1:6f:1b:31:e1:14:2f:2e:b6:
                    1d:d7:0c:0f:a5:d7:45:d2:4a:a5:83:c3:0f:77:80:
                    78:7d:48:b7:00:1f:6a:38:be:f0:ac:39:d3:00:2c:
                    37:e3:71:a1:12:16:86:bd:ee:58:c9:74:49:21:b2:
                    4b:90:bc:b3:db:8b:89:05:b0:88:23:12:89:8b:11:
                    48:eb:2c:5b:39:3c:e7:cd:81:21:0a:55:72:f9:46:
                    c7:8d:5e:c3:f3:d1:e2:b0:33:66:fa:b4:ae:68:c7:
                    14:c1:2d:48:a3:91:b3:f2:80:23:c6:f3:f9:f8:7f:
                    2d:ae:21:93:07:3c:83:ab:8d:29:2a:62:66:b2:4e:
                    7a:d0:83:d0:49:2c:7a:da:df:bc:37:33:ea:7f:93:
                    87:04:d6:c3:ac:85:c4:ed:00:5f:d9:30:82:be:56:
                    de:f4:1d:49:f2:e4:a4:d7:10:1f:91:c7:c0:51:d7:
                    5c:ba:ef:f5:7b:5a:3b:ce:95:50:7f:b6:9b:5e:9d:
                    24:1f:47:a7:0e:75:fd:e6:c4:2f:49:6d:ad:96:bd:
                    c6:8e:53:35:dc:80:f3:72:92:9e:bd:27:97:c8:6a:
                    bc:49:6e:55:7f:a9:10:88:ba:b6:66:11:0f:0f:36:
                    9e:c9:a1:42:cf:2d:9e:65:42:ec:a0:9a:89:18:2d:
                    4d:ea:db:73:d1:68:58:45:1e:27:82:a6:f7:ad:76:
                    54:72:00:41:80:05:40:24:2a:92:b3:05:fb:d5:05:
                    9c:51:e4:20:ac:fa:b7:5f:dd:2d:3a:e1:bc:d8:7e:
                    c4:b2:30:96:13:b7:3b:79:32:a6:11:95:b6:c9:2f:
                    5b:62:13:e2:6f:af:3c:73:1c:fd:20:6f:a3:da:b9:
                    66:6c:d3:9b:e4:7e:a5
        X509v3 extensions:
            X509v3 Basic Constraints: 
                CA:FALSE
            X509v3 Extended Key Usage: 
                TLS Web Server Authentication, TLS Web Client Authentication
            X509v3 Subject Alternative Name: 
                DNS:localhost, DNS:oqs-httpd, DNS:FileServer, DNS:VideoServer, DNS:ApiServer, DNS:oqs-httpd:4433, DNS:oqs-httpd:4433:0, IP Address:192.168.173.193, IP Address:172.18.26.49, IP Address:192.168.56.1
            X509v3 Subject Key Identifier: 
                E3:3E:CA:C6:EF:EC:89:CB:14:4B:87:C3:E3:A7:BB:85:28:78:AB:BB
    Signature Algorithm: sha256WithRSAEncryption
         05:5e:03:03:2b:9d:32:3f:da:84:48:42:4b:37:08:7d:d3:aa:
         fb:18:d9:b4:9c:03:23:d3:a0:5f:8a:09:9a:2f:0d:32:30:85:
         a2:39:ff:a4:16:4c:4d:a1:c1:35:4e:03:ef:24:28:17:0d:4c:
         01:68:2b:b0:78:af:cc:ad:69:c3:06:1c:43:ab:0c:af:e2:f9:
         11:2a:8b:cf:c4:08:c4:db:72:3c:52:45:b9:69:86:c5:95:e1:
         13:e1:aa:21:e7:2d:6f:cb:2f:b9:26:5d:a7:3d:70:fc:1b:5f:
         58:92:5a:e8:a6:69:44:10:05:fe:8a:1f:1b:62:bd:2a:94:94:
         59:9a:6d:ba:56:50:87:19:72:9d:c1:26:d7:f9:ba:1a:16:c8:
         02:70:5f:6e:87:4d:df:80:21:ef:fb:be:1c:ba:34:f6:77:b0:
         71:82:7e:18:4d:26:43:0c:a8:ad:3e:fc:90:9b:eb:b7:a1:c0:
         a5:63:ac:fa:47:2e:f4:0c:13:fd:f4:e8:9b:20:a8:48:e6:ef:
         98:cd:c5:98:3c:d6:37:8c:52:36:e3:27:f8:98:f2:dd:2e:a1:
         6f:8f:04:f8:b5:6e:72:f3:51:b2:e5:9f:d5:b6:be:dd:77:6f:
         5f:2c:89:05:3b:41:52:cf:8a:e0:fe:63:20:a6:b5:fa:ad:67:
         16:f0:f7:41:0d:f4:79:ac:1d:60:90:2b:02:56:8e:fb:0e:6f:
         59:45:91:5c:28:b7:96:df:f4:e7:94:2d:aa:ea:ea:89:ce:b7:
         81:60:fe:92:ab:93:00:2b:49:af:94:2e:11:96:98:4c:7d:2f:
         e3:43:5c:26:53:97:1e:4c:16:c7:35:cb:46:10:43:9d:6a:0c:
         f1:58:29:8d:32:31:27:aa:b9:7b:82:91:7b:8d:bd:da:65:be:
         f4:27:86:08:e5:ea:26:ef:30:eb:69:89:f6:a6:49:78:f5:ca:
         99:7c:ad:5b:ff:8e:4d:4a:37:02:9b:fb:02:88:64:7b:ad:b5:
         82:b6:87:40:40:18:be:25:c2:4e:dc:c5:9c:38:f9:e0:f3:9b:
         ff:b7:dc:91:8e:ab:77:f5:8a:12:5b:1c:5e:10:82:6b:78:55:
         41:75:6e:21:a2:dc:83:52:41:ec:23:30:2a:98:39:04:3c:36:
         00:ea:8c:58:27:ec:6b:58:49:2c:a1:ac:02:26:3b:d9:8e:9c:
         4f:64:e6:07:15:64:c6:4e:61:24:17:77:8c:e9:70:b7:01:3a:
         c0:36:2c:a4:ea:15:38:c6:d6:33:d8:40:83:56:8e:38:cc:ca:
         f3:0d:26:d5:16:bd:1f:a5:7b:8a:fe:98:60:b3:5b:26:78:98:
         01:10:f9:85:27:79:65:87
-----BEGIN CERTIFICATE-----
MIII4DCCBsigAwIBAgIBATANBgkqhkiG9w0BAQsFADAbMRkwFwYDVQQDDBBPUFRV
TSBRVUFOVFVNIENBMB4XDTIxMDkwMjEwNTMwOFoXDTIyMDkwMjEwNTMwOFowcjEL
MAkGA1UEBhMCVVMxCzAJBgNVBAgMAk1OMSAwHgYDVQQKDBdUZXN0IE9wdHVtIFRl
Y2hub2xvZ2llczEgMB4GA1UECwwXUXVhbnR1bSBFeHBlcmltZW50YXRpb24xEjAQ
BgNVBAMMCWxvY2FsaG9zdDCCBTQwDQYLKwYBBAECggsHBAQDggUhAOS8kZZv+fGh
9JBrplAo02AI0bQL65MpDs8ZOH0jWWjVnGeSx/gvqp9myirdXxu3aUrtmIg73RsL
j6vNGRJYQzkjo0fh/5G6+cvIYzxnbiU4hQdG/SlU9YGC1AsfRiY+rvw3nX4wj91u
UBd7o+HKggeIWoF2L86Dlj9oDqJJfPi2dm+erEKrKtj0IN0ZhigwY9otQX3Lfkfi
uRK9mds68Fan2LahK4oiqf3s/RJ8VkKA+i5tfkbjTl19rwyUxjJwvgXergHe5Bxe
f9A7vFwpiomv20K8PF6NcwDoku8pctDM08VQlw8Cq1wyzfs4ZskOKk2SK1G8FGYy
mHc058srwi1/qPjxKnr5d+8XzUaUDZfSCg44tA9MSidWPa5kPml6h8VBgp058dTX
XeC1FRBZf5sJGTMsYXadjo8+qRLtRm560P8+sMPC9suuqRnNh/9hXIz32HW3KaUA
TPrlhLS2bv3gX4w85ITKkjdhVTkAY5JDbrD8iVExyCCxD3X/y2QuW9gaSuKTAZWi
l50wA2QOoo9iC8U6UJBbBCv/lC+AZoHWABVMgWlNhiu12dE2daU3Xc9+80q3gjpy
kjOlXO0Z1eYF28YRlxI0xtjKq34aPoxf8LPn+xheel6NkqImpjpLgRHdUjYlEBud
uFwn7CpWvuFzSw+BJyqoQ9he2FtPKqO2+tfm0xYJTLIdFsGhcdq+Gw3pHVzGs8dh
mp3688nTQBv/49efevKz0fcvOki8FMlY7ysaa2dPPIh2RHHUAnsPSosTqjeFMSzp
IAOKHVErIDHmy8ustFEC+y5z4Yp+9F45fRIrUbBPAazplu3TPqkYkiARTK2Gfy15
ITvcbU+jA/wEGqadODSbieOTayU+XHmjFrY9HIv1Nm6ZyVOWlVVpJ0TUBlxndCvk
kgs+nnbRqMh1q6rrcAnTTosi1ZFnfBNLo5AgFnNeVg2bkzk5nYC09xIKTfa8rNca
oysMQR2y0vUk+VAVHqZZIAXQVTiXYeZpUQEJ4GlvXmlHsysZ9f4NnKheHcXdGrrg
XSFO2pjePdL/tmrImywJaMTLBmGTcaJky8nUlxsdY1uoMRECjKALtteW8cNUsQuo
6LKvRPUnjjY/xAkvjmhw5YHo5013NXTupWP15Qor13I4l4/NDd6TLkQpJuSABD2F
aRWCzci2ZkgHGoPnDAkkfj84uUZRKnsfZxIeFtPrEx/ZcxVwWeOWVtFslYyrn3NC
eYCzqVoavebWjcrOD5W66Srtg5GWe4tecP0rAV5vyGdlmcYiDVys4v/DMd5vUZS1
tWmqUP+bCcBdm09L3qFvGzHhFC8uth3XDA+l10XSSqWDww93gHh9SLcAH2o4vvCs
OdMALDfjcaESFoa97ljJdEkhskuQvLPbi4kFsIgjEomLEUjrLFs5POfNgSEKVXL5
RseNXsPz0eKwM2b6tK5oxxTBLUijkbPygCPG8/n4fy2uIZMHPIOrjSkqYmayTnrQ
g9BJLHra37w3M+p/k4cE1sOshcTtAF/ZMIK+Vt70HUny5KTXEB+Rx8BR11y67/V7
WjvOlVB/tptenSQfR6cOdf3mxC9Jba2WvcaOUzXcgPNykp69J5fIarxJblV/qRCI
urZmEQ8PNp7JoULPLZ5lQuygmokYLU3q23PRaFhFHieCpvetdlRyAEGABUAkKpKz
BfvVBZxR5CCs+rdf3S064bzYfsSyMJYTtzt5MqYRlbbJL1tiE+JvrzxzHP0gb6Pa
uWZs05vkfqWjgcUwgcIwCQYDVR0TBAIwADAdBgNVHSUEFjAUBggrBgEFBQcDAQYI
KwYBBQUHAwIwdwYDVR0RBHAwboIJbG9jYWxob3N0gglvcXMtaHR0cGSCCkZpbGVT
ZXJ2ZXKCC1ZpZGVvU2VydmVygglBcGlTZXJ2ZXKCDm9xcy1odHRwZDo0NDMzghBv
cXMtaHR0cGQ6NDQzMzowhwTAqK3BhwSsEhoxhwTAqDgBMB0GA1UdDgQWBBTjPsrG
7+yJyxRLh8Pjp7uFKHiruzANBgkqhkiG9w0BAQsFAAOCAgEABV4DAyudMj/ahEhC
SzcIfdOq+xjZtJwDI9OgX4oJmi8NMjCFojn/pBZMTaHBNU4D7yQoFw1MAWgrsHiv
zK1pwwYcQ6sMr+L5ESqLz8QIxNtyPFJFuWmGxZXhE+GqIectb8svuSZdpz1w/Btf
WJJa6KZpRBAF/oofG2K9KpSUWZptulZQhxlyncEm1/m6GhbIAnBfbodN34Ah7/u+
HLo09newcYJ+GE0mQwyorT78kJvrt6HApWOs+kcu9AwT/fTomyCoSObvmM3FmDzW
N4xSNuMn+Jjy3S6hb48E+LVucvNRsuWf1ba+3XdvXyyJBTtBUs+K4P5jIKa1+q1n
FvD3QQ30eawdYJArAlaO+w5vWUWRXCi3lt/055Qtqurqic63gWD+kquTACtJr5Qu
EZaYTH0v40NcJlOXHkwWxzXLRhBDnWoM8VgpjTIxJ6q5e4KRe4292mW+9CeGCOXq
Ju8w62mJ9qZJePXKmXytW/+OTUo3Apv7Aohke621graHQEAYviXCTtzFnDj54POb
/7fckY6rd/WKElscXhCCa3hVQXVuIaLcg1JB7CMwKpg5BDw2AOqMWCfsa1hJLKGs
AiY72Y6cT2TmBxVkxk5hJBd3jOlwtwE6wDYspOoVOMbWM9hAg1aOOMzK8w0m1Ra9
H6V7iv6YYLNbJniYARD5hSd5ZYc=
-----END CERTIFICATE-----
